target datalayout = "e-m:e-p270:32:32-p271:32:32-p272:64:64-i64:64-i128:128-f80:128-n8:16:32:64-S128"
target triple = "x86_64-pc-linux-gnu"

%"struct.duckdb_libpgquery::PGList" = type { i32, i32, ptr, ptr }
%"struct.duckdb_libpgquery::PGListCell" = type { %union.anon, ptr }
%union.anon = type { ptr }

@.str = private unnamed_addr constant [38 x i8] c"cannot list_concat() a list to itself\00", align 1

; Function Attrs: mustprogress uwtable
define hidden noundef ptr @_ZN17duckdb_libpgquery11list_concatEPNS_6PGListES1_(ptr noundef %0, ptr noundef %1) #0 {
  %3 = alloca ptr, align 8
  %4 = alloca ptr, align 8
  %5 = alloca ptr, align 8
  store ptr %0, ptr %4, align 8, !tbaa !3
  store ptr %1, ptr %5, align 8, !tbaa !3
  %6 = load ptr, ptr %4, align 8, !tbaa !3
  %7 = icmp eq ptr %6, null
  br i1 %7, label %8, label %10

8:                                                ; preds = %2
  %9 = load ptr, ptr %5, align 8, !tbaa !3
  store ptr %9, ptr %3, align 8
  br label %41

10:                                               ; preds = %2
  %11 = load ptr, ptr %5, align 8, !tbaa !3
  %12 = icmp eq ptr %11, null
  br i1 %12, label %13, label %15

13:                                               ; preds = %10
  %14 = load ptr, ptr %4, align 8, !tbaa !3
  store ptr %14, ptr %3, align 8
  br label %41

15:                                               ; preds = %10
  %16 = load ptr, ptr %4, align 8, !tbaa !3
  %17 = load ptr, ptr %5, align 8, !tbaa !3
  %18 = icmp eq ptr %16, %17
  br i1 %18, label %19, label %20

19:                                               ; preds = %15
  call void (i32, ptr, ...) @_ZN17duckdb_libpgquery4elogEiPKcz(i32 noundef 3, ptr noundef @.str)
  br label %20

20:                                               ; preds = %19, %15
  %21 = load ptr, ptr %5, align 8, !tbaa !3
  %22 = getelementptr inbounds nuw %"struct.duckdb_libpgquery::PGList", ptr %21, i32 0, i32 1
  %23 = load i32, ptr %22, align 4, !tbaa !20
  %24 = load ptr, ptr %4, align 8, !tbaa !3
  %25 = getelementptr inbounds nuw %"struct.duckdb_libpgquery::PGList", ptr %24, i32 0, i32 1
  %26 = load i32, ptr %25, align 4, !tbaa !20
  %27 = add nsw i32 %26, %23
  store i32 %27, ptr %25, align 4, !tbaa !20
  %28 = load ptr, ptr %5, align 8, !tbaa !3
  %29 = getelementptr inbounds nuw %"struct.duckdb_libpgquery::PGList", ptr %28, i32 0, i32 2
  %30 = load ptr, ptr %29, align 8, !tbaa !21
  %31 = load ptr, ptr %4, align 8, !tbaa !3
  %32 = getelementptr inbounds nuw %"struct.duckdb_libpgquery::PGList", ptr %31, i32 0, i32 3
  %33 = load ptr, ptr %32, align 8, !tbaa !9
  %34 = getelementptr inbounds nuw %"struct.duckdb_libpgquery::PGListCell", ptr %33, i32 0, i32 1
  store ptr %30, ptr %34, align 8, !tbaa !17
  %35 = load ptr, ptr %5, align 8, !tbaa !3
  %36 = getelementptr inbounds nuw %"struct.duckdb_libpgquery::PGList", ptr %35, i32 0, i32 3
  %37 = load ptr, ptr %36, align 8, !tbaa !9
  %38 = load ptr, ptr %4, align 8, !tbaa !3
  %39 = getelementptr inbounds nuw %"struct.duckdb_libpgquery::PGList", ptr %38, i32 0, i32 3
  store ptr %37, ptr %39, align 8, !tbaa !9
  %40 = load ptr, ptr %4, align 8, !tbaa !3
  store ptr %40, ptr %3, align 8
  br label %41

41:                                               ; preds = %20, %13, %8
  %42 = load ptr, ptr %3, align 8
  ret ptr %42
}