; Function Attrs: mustprogress uwtable
define hidden noundef ptr @_ZN17duckdb_libpgquery11list_concatEPNS_6PGListES1_(ptr noundef captures(address, ret: address, provenance) %0, ptr noundef readonly captures(address, ret: address, provenance) %1) local_unnamed_addr #0 {
  %3 = icmp eq ptr %0, null
  br i1 %3, label %22, label %4

4:                                                ; preds = %2
  %5 = icmp eq ptr %1, null
  br i1 %5, label %22, label %6

6:                                                ; preds = %4
  %7 = icmp eq ptr %0, %1
  br i1 %7, label %8, label %9

8:                                                ; preds = %6
  tail call void (i32, ptr, ...) @_ZN17duckdb_libpgquery4elogEiPKcz(i32 noundef 3, ptr noundef nonnull @.str)
  br label %9

9:                                                ; preds = %8, %6
  %10 = getelementptr inbounds nuw i8, ptr %1, i64 4
  %11 = load i32, ptr %10, align 4, !tbaa !13
  %12 = getelementptr inbounds nuw i8, ptr %0, i64 4
  %13 = load i32, ptr %12, align 4, !tbaa !13
  %14 = add nsw i32 %13, %11
  store i32 %14, ptr %12, align 4, !tbaa !13
  %15 = getelementptr inbounds nuw i8, ptr %1, i64 8
  %16 = load ptr, ptr %15, align 8, !tbaa !14
  %17 = getelementptr inbounds nuw i8, ptr %0, i64 16
  %18 = load ptr, ptr %17, align 8, !tbaa !15
  %19 = getelementptr inbounds nuw i8, ptr %18, i64 8
  store ptr %16, ptr %19, align 8, !tbaa !3
  %20 = getelementptr inbounds nuw i8, ptr %1, i64 16
  %21 = load ptr, ptr %20, align 8, !tbaa !15
  store ptr %21, ptr %17, align 8, !tbaa !15
  br label %22

22:                                               ; preds = %4, %2, %9
  %.0 = phi ptr [ %0, %9 ], [ %1, %2 ], [ %0, %4 ]
  ret ptr %.0
}